target datalayout = "e-m:e-p270:32:32-p271:32:32-p272:64:64-i64:64-i128:128-f80:128-n8:16:32:64-S128"
target triple = "x86_64-unknown-linux-gnu"

%struct.VhostUserGPU = type { %struct.VirtIOGPUBase, ptr, i32, %struct.CharBackend, [16 x %struct.QemuDmaBuf], i8 }
%struct.VirtIOGPUBase = type { %struct.VirtIODevice, ptr, %struct.virtio_gpu_base_conf, %struct.virtio_gpu_config, ptr, i32, i32, %struct.MemoryRegion, [16 x %struct.virtio_gpu_scanout], i32, [16 x %struct.virtio_gpu_requested_state] }
%struct.VirtIODevice = type { %struct.DeviceState, ptr, i8, i8, i16, i64, i64, i64, i64, ptr, i16, i32, i32, ptr, %struct.MemoryListener, i16, i8, i8, i8, i8, i8, i8, i8, i8, i8, ptr, ptr, i8, i8, ptr, ptr, %union.anon.1, %struct.EventNotifier, i8 }
%struct.DeviceState = type { %struct.Object, ptr, ptr, i8, i8, i64, ptr, i32, i8, ptr, %struct.NamedGPIOListHead, %struct.NamedClockListHead, %struct.BusStateHead, i32, i32, i32, %struct.ResettableState, ptr, %struct.MemReentrancyGuard }
%struct.Object = type { ptr, ptr, ptr, i32, ptr }
%struct.NamedGPIOListHead = type { ptr }
%struct.NamedClockListHead = type { ptr }
%struct.BusStateHead = type { ptr }
%struct.ResettableState = type { i32, i8, i8 }
%struct.MemReentrancyGuard = type { i8 }
%struct.MemoryListener = type { ptr, ptr, ptr, ptr, ptr, ptr, ptr, ptr, ptr, ptr, ptr, ptr, ptr, ptr, ptr, ptr, ptr, i32, ptr, ptr, %union.anon, %union.anon.0 }
%union.anon = type { %struct.QTailQLink }
%struct.QTailQLink = type { ptr, ptr }
%union.anon.0 = type { %struct.QTailQLink }
%union.anon.1 = type { %struct.QTailQLink }
%struct.EventNotifier = type { i32, i32, i8 }
%struct.virtio_gpu_base_conf = type { i32, i32, i32, i32, i64 }
%struct.virtio_gpu_config = type { i32, i32, i32, i32 }
%struct.MemoryRegion = type { %struct.Object, i8, i8, i8, i8, i8, i8, i8, i8, i8, i8, ptr, ptr, ptr, ptr, ptr, ptr, i32, i128, i64, ptr, i64, i8, i8, i8, i8, i8, ptr, i64, i32, %union.anon.2, %union.anon.3, %union.anon.4, ptr, i32, ptr, ptr, i8 }
%union.anon.2 = type { %struct.QTailQLink }
%union.anon.3 = type { %struct.QTailQLink }
%union.anon.4 = type { %struct.QTailQLink }
%struct.virtio_gpu_scanout = type { ptr, ptr, i32, i32, i32, i32, i32, i32, %struct.virtio_gpu_update_cursor, ptr }
%struct.virtio_gpu_update_cursor = type { %struct.virtio_gpu_ctrl_hdr, %struct.virtio_gpu_cursor_pos, i32, i32, i32, i32 }
%struct.virtio_gpu_ctrl_hdr = type { i32, i32, i64, i32, i8, [3 x i8] }
%struct.virtio_gpu_cursor_pos = type { i32, i32, i32, i32 }
%struct.virtio_gpu_requested_state = type { i16, i16, i32, i32, i32, i32, i32 }
%struct.CharBackend = type { ptr, ptr, ptr, ptr, ptr, ptr, i32, i32 }
%struct.QemuDmaBuf = type { i32, i32, i32, i32, i32, i64, i32, i32, i32, i32, i32, i8, ptr, i32, i8, i8 }
%struct.VhostUserGpuMsg = type <{ i32, i32, i32, %union.anon.6 }>
%union.anon.6 = type { %struct.virtio_gpu_resp_edid, [15352 x i8] }
%struct.virtio_gpu_resp_edid = type { %struct.virtio_gpu_ctrl_hdr, i32, i32, [1024 x i8] }

@.str = private unnamed_addr constant [15 x i8] c"vhost-user-gpu\00", align 1
@.str.4 = private unnamed_addr constant [109 x i8] c"/home/dtcxzyw/WorkSpace/Projects/compilers/llvm-opt-benchmark/bench/qemu/qemu/include/hw/virtio/virtio-gpu.h\00", align 1
@__func__.VHOST_USER_GPU = private unnamed_addr constant [15 x i8] c"VHOST_USER_GPU\00", align 1

; Function Attrs: nounwind sspstrong uwtable
define internal void @vhost_user_gpu_send_msg(ptr noundef %g, ptr noundef %msg) #0 {
entry:
  %g.addr = alloca ptr, align 8
  %msg.addr = alloca ptr, align 8
  store ptr %g, ptr %g.addr, align 8
  store ptr %msg, ptr %msg.addr, align 8
  %0 = load ptr, ptr %g.addr, align 8
  %vhost_chr = getelementptr inbounds %struct.VhostUserGPU, ptr %0, i32 0, i32 3
  %1 = load ptr, ptr %msg.addr, align 8
  %2 = load ptr, ptr %msg.addr, align 8
  %size = getelementptr inbounds %struct.VhostUserGpuMsg, ptr %2, i32 0, i32 2
  %3 = load i32, ptr %size, align 1
  %conv = zext i32 %3 to i64
  %add = add i64 12, %conv
  %conv1 = trunc i64 %add to i32
  %call = call i32 @qemu_chr_fe_write(ptr noundef %vhost_chr, ptr noundef %1, i32 noundef %conv1)
  ret void
}

; Function Attrs: nounwind sspstrong uwtable
define internal void @vhost_user_gpu_update_blocked(ptr noundef %g, i1 noundef zeroext %blocked) #0 {
entry:
  %g.addr = alloca ptr, align 8
  %blocked.addr = alloca i8, align 1
  store ptr %g, ptr %g.addr, align 8
  %frombool = zext i1 %blocked to i8
  store i8 %frombool, ptr %blocked.addr, align 1
  %0 = load ptr, ptr %g.addr, align 8
  %vhost_gpu_fd = getelementptr inbounds %struct.VhostUserGPU, ptr %0, i32 0, i32 2
  %1 = load i32, ptr %vhost_gpu_fd, align 8
  %2 = load i8, ptr %blocked.addr, align 1
  %tobool = trunc i8 %2 to i1
  %cond = select i1 %tobool, ptr null, ptr @vhost_user_gpu_chr_read
  %3 = load ptr, ptr %g.addr, align 8
  call void @qemu_set_fd_handler(i32 noundef %1, ptr noundef %cond, ptr noundef null, ptr noundef %3)
  ret void
}

; Function Attrs: nounwind sspstrong uwtable
define internal void @vhost_user_gpu_unblock(ptr noundef %g) #0 {
entry:
  %g.addr = alloca ptr, align 8
  %msg = alloca %struct.VhostUserGpuMsg, align 1
  store ptr %g, ptr %g.addr, align 8
  call void @llvm.memset.p0.i64(ptr align 1 %msg, i8 0, i64 16420, i1 false)
  %0 = getelementptr inbounds %struct.VhostUserGpuMsg, ptr %msg, i32 0, i32 0
  store i32 10, ptr %0, align 1
  %1 = getelementptr inbounds %struct.VhostUserGpuMsg, ptr %msg, i32 0, i32 1
  store i32 4, ptr %1, align 1
  %2 = load ptr, ptr %g.addr, align 8
  call void @vhost_user_gpu_send_msg(ptr noundef %2, ptr noundef %msg)
  ret void
}

; Function Attrs: nounwind sspstrong uwtable
define internal ptr @VHOST_USER_GPU(ptr noundef %obj) #0 {
entry:
  %obj.addr = alloca ptr, align 8
  store ptr %obj, ptr %obj.addr, align 8
  %0 = load ptr, ptr %obj.addr, align 8
  %call = call ptr @object_dynamic_cast_assert(ptr noundef %0, ptr noundef @.str, ptr noundef @.str.4, i32 noundef 39, ptr noundef @__func__.VHOST_USER_GPU)
  ret ptr %call
}

; Function Attrs: nounwind sspstrong uwtable
define internal void @vhost_user_gpu_gl_flushed(ptr noundef %b) #0 {
entry:
  %b.addr = alloca ptr, align 8
  %g = alloca ptr, align 8
  store ptr %b, ptr %b.addr, align 8
  %0 = load ptr, ptr %b.addr, align 8
  %call = call ptr @VHOST_USER_GPU(ptr noundef %0)
  store ptr %call, ptr %g, align 8
  %1 = load ptr, ptr %g, align 8
  %backend_blocked = getelementptr inbounds %struct.VhostUserGPU, ptr %1, i32 0, i32 5
  %2 = load i8, ptr %backend_blocked, align 8
  %tobool = trunc i8 %2 to i1
  br i1 %tobool, label %if.then, label %if.end

if.then:                                          ; preds = %entry
  %3 = load ptr, ptr %g, align 8
  call void @vhost_user_gpu_unblock(ptr noundef %3)
  %4 = load ptr, ptr %g, align 8
  %backend_blocked1 = getelementptr inbounds %struct.VhostUserGPU, ptr %4, i32 0, i32 5
  store i8 0, ptr %backend_blocked1, align 8
  br label %if.end

if.end:                                           ; preds = %if.then, %entry
  %5 = load ptr, ptr %g, align 8
  call void @vhost_user_gpu_update_blocked(ptr noundef %5, i1 noundef zeroext false)
  ret void
}