; Function Attrs: nounwind sspstrong uwtable
define internal void @vhost_user_gpu_gl_flushed(ptr noundef %b) #0 {
entry:
  %msg.i = alloca %struct.VhostUserGpuMsg, align 4
  %call.i = tail call ptr @object_dynamic_cast_assert(ptr noundef %b, ptr noundef nonnull @.str, ptr noundef nonnull @.str.4, i32 noundef 39, ptr noundef nonnull @__func__.VHOST_USER_GPU) #7
  %backend_blocked = getelementptr inbounds nuw i8, ptr %call.i, i64 4152
  %0 = load i8, ptr %backend_blocked, align 8
  %tobool = trunc i8 %0 to i1
  br i1 %tobool, label %if.then, label %if.end

if.then:                                          ; preds = %entry
  call void @llvm.lifetime.start.p0(i64 16420, ptr nonnull %msg.i)
  %1 = getelementptr inbounds nuw i8, ptr %msg.i, i64 8
  call void @llvm.memset.p0.i64(ptr noundef nonnull align 4 dereferenceable(16420) %1, i8 0, i64 16412, i1 false)
  store i32 10, ptr %msg.i, align 4
  %2 = getelementptr inbounds nuw i8, ptr %msg.i, i64 4
  store i32 4, ptr %2, align 4
  %vhost_chr.i.i = getelementptr inbounds nuw i8, ptr %call.i, i64 2944
  %call.i.i = call i32 @qemu_chr_fe_write(ptr noundef nonnull %vhost_chr.i.i, ptr noundef nonnull %msg.i, i32 noundef 12) #7
  call void @llvm.lifetime.end.p0(i64 16420, ptr nonnull %msg.i)
  store i8 0, ptr %backend_blocked, align 8
  br label %if.end

if.end:                                           ; preds = %if.then, %entry
  %vhost_gpu_fd.i = getelementptr inbounds nuw i8, ptr %call.i, i64 2936
  %3 = load i32, ptr %vhost_gpu_fd.i, align 8
  call void @qemu_set_fd_handler(i32 noundef %3, ptr noundef nonnull @vhost_user_gpu_chr_read, ptr noundef null, ptr noundef nonnull %call.i) #7
  ret void
}